; Function Attrs: mustprogress nofree norecurse nosync nounwind willreturn memory(read, inaccessiblemem: none) uwtable
define hidden noundef ptr @_ZNK8ProjNode13other_if_projEv(ptr nocapture noundef nonnull readonly align 8 dereferenceable(57) %0) local_unnamed_addr #3 align 2 {
  %2 = getelementptr inbounds i8, ptr %0, i64 8
  %3 = load ptr, ptr %2, align 8
  %4 = load ptr, ptr %3, align 8
  %5 = getelementptr inbounds i8, ptr %0, i64 52
  %6 = load i32, ptr %5, align 4
  %7 = sub i32 1, %6
  %8 = getelementptr inbounds i8, ptr %4, i64 16
  %9 = load ptr, ptr %8, align 8
  %10 = getelementptr inbounds i8, ptr %4, i64 32
  %11 = load i32, ptr %10, align 8
  %12 = zext i32 %11 to i64
  %13 = getelementptr inbounds ptr, ptr %9, i64 %12
  %.not.i.i = icmp eq i32 %11, 0
  br i1 %.not.i.i, label %_ZNK9MultiNode8proj_outEj.exit, label %.lr.ph.i.i

.lr.ph.i.i:                                       ; preds = %1, %23
  %.0910.i.i = phi ptr [ %24, %23 ], [ %9, %1 ]
  %14 = load ptr, ptr %.0910.i.i, align 8
  %15 = getelementptr inbounds i8, ptr %14, i64 44
  %16 = load i32, ptr %15, align 4
  %17 = and i32 %16, 15
  %18 = icmp eq i32 %17, 8
  br i1 %18, label %19, label %23

19:                                               ; preds = %.lr.ph.i.i
  %20 = getelementptr inbounds i8, ptr %14, i64 52
  %21 = load i32, ptr %20, align 4
  %22 = icmp eq i32 %21, %7
  br i1 %22, label %_ZNK9MultiNode8proj_outEj.exit, label %23

23:                                               ; preds = %19, %.lr.ph.i.i
  %24 = getelementptr inbounds i8, ptr %.0910.i.i, i64 8
  %25 = icmp ult ptr %24, %13
  br i1 %25, label %.lr.ph.i.i, label %_ZNK9MultiNode8proj_outEj.exit, !llvm.loop !6

_ZNK9MultiNode8proj_outEj.exit:                   ; preds = %19, %23, %1
  %.0.i.i = phi ptr [ null, %1 ], [ null, %23 ], [ %14, %19 ]
  ret ptr %.0.i.i
}